(dp1
S'output'
p2
S"<class 'serial.serialutil.SerialException'> device reports readiness to read but returned no data (device disconnected?)"
p3
sS'layer'
p4
S'/home/student/web2py/applications/sensor_readiness/controllers/co2.py'
p5
sS'code'
p6
S'#import serial\n#import time\n#ser = serial.Serial("/dev/ttyAMA0",9600)\n#ser.write("K 2\\r\\n")\n#ser.flushInput()\ndef co2():\n    #ser.write("Z\\r\\n")\n    #time.sleep(.01)\n    #resp = ser.read(10)\n    #resp = resp[:8]\n    #fltCO2 = float(resp[2:])\n    #return dict(message=fltCO2,resp=resp)\n#def index(): return dict(message="cozir.py")\n\n    import serial\n    import time\n    ser = serial.Serial("/dev/ttyAMA0",9600)\n    ser.write("K 2\\r\\n")\n    ser.flushInput()\n    time.sleep(1)\n    ser.write("Z\\r\\n")\n    time.sleep(.01)\n    resp = ser.read(10).lstrip()\n    fst=resp[0]\n    tries = 0\n    while((tries < 20) and (fst != \'Z\')):\n        resp = ser.read(10).lstrip()\n        fst=resp[0]\n        tries = tries + 1\n    fltCO2 = float(resp[2:])\n    return response.json(dict(message=fltCO2))\n\n\n\nresponse._vars=response._caller(co2)\n'
p7
sS'snapshot'
p8
(dp9
sS'traceback'
p10
S'Traceback (most recent call last):\n  File "/home/student/web2py/gluon/restricted.py", line 227, in restricted\n    exec ccode in environment\n  File "/home/student/web2py/applications/sensor_readiness/controllers/co2.py", line 35, in <module>\n  File "/home/student/web2py/gluon/globals.py", line 417, in <lambda>\n    self._caller = lambda f: f()\n  File "/home/student/web2py/applications/sensor_readiness/controllers/co2.py", line 27, in co2\n    resp = ser.read(10).lstrip()\n  File "/usr/lib/python2.7/dist-packages/serial/serialposix.py", line 460, in read\n    raise SerialException(\'device reports readiness to read but returned no data (device disconnected?)\')\nSerialException: device reports readiness to read but returned no data (device disconnected?)\n'
p11
s.